	.arch armv7-a
	.eabi_attribute 28, 1
	.eabi_attribute 20, 1
	.eabi_attribute 21, 1
	.eabi_attribute 23, 3
	.eabi_attribute 24, 1
	.eabi_attribute 25, 1
	.eabi_attribute 26, 2
	.eabi_attribute 30, 2
	.eabi_attribute 34, 1
	.eabi_attribute 18, 4
	.file	"huffman.c"
	.text
.Ltext0:
	.cfi_sections	.debug_frame
	.align	2
	.global	encode
	.arch armv7-a
	.syntax unified
	.arm
	.fpu vfpv3-d16
	.type	encode, %function
encode:
.LVL0:
.LFB0:
	.file 1 "src/huffman.c"
	.loc 1 3 69 view -0
	.cfi_startproc
	@ args = 0, pretend = 0, frame = 0
	@ frame_needed = 0, uses_anonymous_args = 0
	.loc 1 4 5 view .LVU1
	.loc 1 5 5 view .LVU2
	.loc 1 6 5 view .LVU3
	.loc 1 9 5 view .LVU4
	.loc 1 3 69 is_stmt 0 view .LVU5
	push	{r4, r5, r6, r7, r8, r9, r10, fp, lr}
	.cfi_def_cfa_offset 36
	.cfi_offset 4, -36
	.cfi_offset 5, -32
	.cfi_offset 6, -28
	.cfi_offset 7, -24
	.cfi_offset 8, -20
	.cfi_offset 9, -16
	.cfi_offset 10, -12
	.cfi_offset 11, -8
	.cfi_offset 14, -4
	.loc 1 9 15 view .LVU6
	ldrb	r3, [r0]	@ zero_extendqisi2
	.loc 1 9 5 view .LVU7
	cmp	r3, #0
	beq	.L6
	.loc 1 6 28 view .LVU8
	mov	lr, #0
	.loc 1 12 23 view .LVU9
	movw	r2, #:lower16:DICT
	mov	r7, r0
	.loc 1 6 28 view .LVU10
	mov	r4, lr
	.loc 1 4 43 view .LVU11
	mov	ip, lr
	.loc 1 4 34 view .LVU12
	mov	r0, lr
.LVL1:
	.loc 1 4 34 view .LVU13
	mov	r6, lr
	mov	r8, #1
	.loc 1 12 23 view .LVU14
	movt	r2, #:upper16:DICT
	ldr	r9, [r2]
.LVL2:
.L3:
	.loc 1 10 9 is_stmt 1 view .LVU15
	.loc 1 12 9 view .LVU16
	.loc 1 18 13 view .LVU17
	.loc 1 12 23 is_stmt 0 view .LVU18
	add	r3, r3, r3, lsl #3
.LVL3:
	.loc 1 12 23 view .LVU19
	add	r3, r9, r3
	.loc 1 12 28 view .LVU20
	ldr	r2, [r3, #4]	@ unaligned
	ldr	r5, [r3]	@ unaligned
	.loc 1 14 25 view .LVU21
	ldrb	fp, [r3, #8]	@ zero_extendqisi2
	.loc 1 12 34 view .LVU22
	sub	r10, ip, #32
	lsl	r2, r2, ip
	orr	r2, r2, r5, lsl r10
	.loc 1 12 16 view .LVU23
	orr	lr, lr, r5, lsl ip
	.loc 1 12 34 view .LVU24
	rsb	r10, ip, #32
	.loc 1 14 13 view .LVU25
	add	ip, ip, fp
.LVL4:
	.loc 1 12 34 view .LVU26
	orr	r2, r2, r5, lsr r10
	.loc 1 16 11 view .LVU27
	tst	ip, #64
	add	r5, r6, #8
	.loc 1 12 16 view .LVU28
	orr	r4, r2, r4
	.loc 1 14 9 is_stmt 1 view .LVU29
	.loc 1 16 9 view .LVU30
	add	r10, r1, r6
	.loc 1 16 11 is_stmt 0 view .LVU31
	beq	.L4
	.loc 1 18 25 view .LVU32
	str	lr, [r1, r6]
	.loc 1 18 25 view .LVU33
	str	r4, [r10, #4]
	.loc 1 20 13 is_stmt 1 view .LVU34
	.loc 1 22 50 is_stmt 0 view .LVU35
	ldrb	r4, [r3, #8]	@ zero_extendqisi2
	.loc 1 22 31 view .LVU36
	ldr	lr, [r3]	@ unaligned
	.loc 1 20 17 view .LVU37
	sub	ip, ip, #64
.LVL5:
	.loc 1 22 13 is_stmt 1 view .LVU38
	.loc 1 22 55 is_stmt 0 view .LVU39
	sub	r2, r4, ip
	.loc 1 22 31 view .LVU40
	ldr	r4, [r3, #4]	@ unaligned
	.loc 1 9 15 view .LVU41
	ldrb	r3, [r7, #1]!	@ zero_extendqisi2
.LVL6:
	.loc 1 22 20 view .LVU42
	rsb	r6, r2, #32
	lsr	lr, lr, r2
	orr	lr, lr, r4, lsl r6
	.loc 1 9 5 view .LVU43
	cmp	r3, #0
	.loc 1 22 20 view .LVU44
	sub	r6, r2, #32
	orr	lr, lr, r4, lsr r6
	add	r10, r1, r5
	add	r0, r0, #2
.LVL7:
	.loc 1 22 20 view .LVU45
	lsr	r4, r4, r2
.LVL8:
	.loc 1 9 5 view .LVU46
	beq	.L2
	.loc 1 18 21 view .LVU47
	mov	r0, r8
	lsl	r6, r8, #3
	add	r8, r8, #1
.LVL9:
	.loc 1 18 21 view .LVU48
	b	.L3
.LVL10:
.L4:
	.loc 1 9 15 view .LVU49
	ldrb	r3, [r7, #1]!	@ zero_extendqisi2
.LVL11:
	.loc 1 9 5 view .LVU50
	cmp	r3, #0
	bne	.L3
	mov	r0, r8
.LVL12:
.L2:
	.loc 1 26 5 is_stmt 1 view .LVU51
	.loc 1 26 17 is_stmt 0 view .LVU52
	str	lr, [r10]
	str	r4, [r10, #4]
	.loc 1 28 5 is_stmt 1 view .LVU53
	.loc 1 29 1 is_stmt 0 view .LVU54
	pop	{r4, r5, r6, r7, r8, r9, r10, fp, pc}
.LVL13:
.L6:
	.loc 1 6 28 view .LVU55
	mov	lr, r3
	.loc 1 9 5 view .LVU56
	mov	r10, r1
	.loc 1 6 28 view .LVU57
	mov	r4, r3
	.loc 1 9 5 view .LVU58
	mov	r0, #1
.LVL14:
	.loc 1 9 5 view .LVU59
	b	.L2
	.cfi_endproc
.LFE0:
	.size	encode, .-encode
	.align	2
	.global	decode
	.syntax unified
	.arm
	.fpu vfpv3-d16
	.type	decode, %function
decode:
.LVL15:
.LFB1:
	.loc 1 32 69 is_stmt 1 view -0
	.cfi_startproc
	@ args = 0, pretend = 0, frame = 16
	@ frame_needed = 0, uses_anonymous_args = 0
	.loc 1 32 69 is_stmt 0 view .LVU61
	push	{r4, r5, r6, r7, r8, r9, r10, fp, lr}
	.cfi_def_cfa_offset 36
	.cfi_offset 4, -36
	.cfi_offset 5, -32
	.cfi_offset 6, -28
	.cfi_offset 7, -24
	.cfi_offset 8, -20
	.cfi_offset 9, -16
	.cfi_offset 10, -12
	.cfi_offset 11, -8
	.cfi_offset 14, -4
	.loc 1 34 46 view .LVU62
	ldmib	r0, {r2, r7, r10}
	.loc 1 33 55 view .LVU63
	mov	r9, #0
	.loc 1 33 36 view .LVU64
	mov	r3, #1
	movw	ip, #:lower16:TREE
	.loc 1 47 23 view .LVU65
	mov	r8, r9
	.loc 1 32 69 view .LVU66
	sub	sp, sp, #20
	.cfi_def_cfa_offset 56
	.loc 1 33 36 view .LVU67
	str	r3, [sp]
	sub	fp, r1, #1
	movt	ip, #:upper16:TREE
	rsb	r1, r1, #2
.LVL16:
	.loc 1 34 28 view .LVU68
	ldr	r3, [r0]
	.loc 1 32 69 view .LVU69
	str	r0, [sp, #12]
	.loc 1 33 5 is_stmt 1 view .LVU70
.LVL17:
	.loc 1 34 5 view .LVU71
	.loc 1 34 5 is_stmt 0 view .LVU72
	str	r1, [sp, #4]
	str	ip, [sp, #8]
.LVL18:
.L17:
	.loc 1 35 5 is_stmt 1 view .LVU73
	.loc 1 37 5 view .LVU74
	.loc 1 39 9 view .LVU75
	.loc 1 39 20 is_stmt 0 view .LVU76
	ldr	r0, [sp, #8]
	.loc 1 39 28 view .LVU77
	and	r1, r3, #7
	.loc 1 39 20 view .LVU78
	ldr	r0, [r0]
	add	r1, r1, r1, lsl #3
	.loc 1 39 14 view .LVU79
	ldrb	lr, [r0, r1]	@ zero_extendqisi2
	.loc 1 40 16 view .LVU80
	lsr	r3, r3, #3
.LVL19:
	.loc 1 39 20 view .LVU81
	add	r1, r0, r1
	.loc 1 45 14 view .LVU82
	tst	lr, #128
.LVL20:
	.loc 1 39 14 view .LVU83
	ldr	ip, [r1, #1]	@ unaligned
.LVL21:
	.loc 1 40 16 view .LVU84
	orr	r3, r3, r2, lsl #29
	.loc 1 39 14 view .LVU85
	ldr	r0, [r1, #5]	@ unaligned
.LVL22:
	.loc 1 40 9 is_stmt 1 view .LVU86
	.loc 1 40 16 is_stmt 0 view .LVU87
	lsr	r2, r2, #3
.LVL23:
	.loc 1 41 9 is_stmt 1 view .LVU88
	.loc 1 45 9 view .LVU89
	.loc 1 45 14 is_stmt 0 view .LVU90
	moveq	ip, #61
.LVL24:
	.loc 1 41 14 view .LVU91
	moveq	r1, #3
.LVL25:
	.loc 1 45 14 view .LVU92
	beq	.L12
	.loc 1 41 14 view .LVU93
	mov	r1, #3
.LVL26:
.L11:
	.loc 1 47 13 is_stmt 1 view .LVU94
	.loc 1 48 17 view .LVU95
	.loc 1 50 17 view .LVU96
	.loc 1 47 23 is_stmt 0 view .LVU97
	mov	r5, r8
	and	r4, r3, #1
	.loc 1 47 15 view .LVU98
	orrs	lr, r4, r5
	.loc 1 53 20 view .LVU99
	lsr	r6, r3, #1
	.loc 1 47 15 view .LVU100
	beq	.L13
	.loc 1 48 22 view .LVU101
	ldrb	lr, [r0]	@ zero_extendqisi2
	.loc 1 53 20 view .LVU102
	orr	r3, r6, r2, lsl #31
.LVL27:
	.loc 1 45 14 view .LVU103
	tst	lr, #128
	.loc 1 48 22 view .LVU104
	ldr	ip, [r0, #1]	@ unaligned
.LVL28:
	.loc 1 53 20 view .LVU105
	lsr	r2, r2, #1
	.loc 1 54 13 view .LVU106
	add	r1, r1, #1
.LVL29:
	.loc 1 48 22 view .LVU107
	ldr	r0, [r0, #5]	@ unaligned
.LVL30:
	.loc 1 53 13 is_stmt 1 view .LVU108
	.loc 1 54 13 view .LVU109
	.loc 1 45 14 is_stmt 0 view .LVU110
	bne	.L11
.LVL31:
.L15:
	.loc 1 45 14 view .LVU111
	rsb	ip, r1, #64
.LVL32:
.L12:
	.loc 1 58 9 is_stmt 1 view .LVU112
	.loc 1 61 24 is_stmt 0 view .LVU113
	sub	r6, ip, #32
	lsl	r0, r10, ip
.LVL33:
	.loc 1 61 24 view .LVU114
	orr	r0, r0, r7, lsl r6
	rsb	r6, ip, #32
	orr	r0, r0, r7, lsr r6
	.loc 1 60 14 view .LVU115
	add	r9, r9, r1
.LVL34:
	.loc 1 61 16 view .LVU116
	orr	r2, r0, r2
	ldr	r0, [sp, #4]
	.loc 1 63 11 view .LVU117
	tst	r9, #64
	add	r0, r0, fp
.LVL35:
	.loc 1 61 16 view .LVU118
	orr	r3, r3, r7, lsl ip
	.loc 1 58 21 view .LVU119
	strb	lr, [fp, #1]!
	.loc 1 60 9 is_stmt 1 view .LVU120
.LVL36:
	.loc 1 61 9 view .LVU121
	.loc 1 63 9 view .LVU122
	.loc 1 63 11 is_stmt 0 view .LVU123
	beq	.L16
	.loc 1 64 13 is_stmt 1 view .LVU124
	.loc 1 64 18 is_stmt 0 view .LVU125
	ldr	r1, [sp]
	ldr	r7, [sp, #12]
.LVL37:
	.loc 1 64 18 view .LVU126
	add	r6, r1, #1
	add	ip, r7, r6, lsl #3
	.loc 1 67 15 view .LVU127
	subs	r1, r9, #64
	.loc 1 64 18 view .LVU128
	ldr	r10, [ip, #4]
	ldr	r7, [r7, r6, lsl #3]
	str	r6, [sp]
.LVL38:
	.loc 1 65 13 is_stmt 1 view .LVU129
	.loc 1 66 13 view .LVU130
	.loc 1 67 13 view .LVU131
	.loc 1 68 17 view .LVU132
	.loc 1 68 41 is_stmt 0 view .LVU133
	rsbne	r6, r1, #64
.LVL39:
	.loc 1 68 32 view .LVU134
	subne	r9, r6, #32
.LVL40:
	.loc 1 68 32 view .LVU135
	lslne	ip, r10, r6
	orrne	ip, ip, r7, lsl r9
	rsbne	r9, r6, #32
	orrne	ip, ip, r7, lsr r9
	mov	r9, r1
	.loc 1 68 24 view .LVU136
	orrne	r3, r3, r7, lsl r6
.LVL41:
	.loc 1 68 24 view .LVU137
	orrne	r2, ip, r2
.LVL42:
.L16:
	.loc 1 72 9 is_stmt 1 view .LVU138
	.loc 1 72 14 is_stmt 0 view .LVU139
	rsb	ip, r1, #32
	lsr	r7, r7, r1
.LVL43:
	.loc 1 72 14 view .LVU140
	orr	r7, r7, r10, lsl ip
	.loc 1 74 5 view .LVU141
	cmp	lr, #3
	.loc 1 72 14 view .LVU142
	sub	ip, r1, #32
	orr	r7, r7, r10, lsr ip
	lsr	r10, r10, r1
.LVL44:
	.loc 1 74 5 view .LVU143
	bne	.L17
	.loc 1 77 1 view .LVU144
	add	sp, sp, #20
	.cfi_remember_state
	.cfi_def_cfa_offset 36
.LVL45:
	.loc 1 77 1 view .LVU145
	@ sp needed
	pop	{r4, r5, r6, r7, r8, r9, r10, fp, pc}
.LVL46:
.L13:
	.cfi_restore_state
	.loc 1 50 22 view .LVU146
	ldrb	lr, [ip]	@ zero_extendqisi2
	.loc 1 53 20 view .LVU147
	orr	r3, r6, r2, lsl #31
.LVL47:
	.loc 1 45 14 view .LVU148
	tst	lr, #128
	.loc 1 53 20 view .LVU149
	lsr	r2, r2, #1
	.loc 1 54 13 view .LVU150
	add	r1, r1, #1
.LVL48:
	.loc 1 50 22 view .LVU151
	ldr	r6, [ip, #1]	@ unaligned
.LVL49:
	.loc 1 50 22 view .LVU152
	ldr	r0, [ip, #5]	@ unaligned
.LVL50:
	.loc 1 53 13 is_stmt 1 view .LVU153
	.loc 1 54 13 view .LVU154
	.loc 1 45 14 is_stmt 0 view .LVU155
	beq	.L15
	.loc 1 50 22 view .LVU156
	mov	ip, r6
.LVL51:
	.loc 1 50 22 view .LVU157
	b	.L11
	.cfi_endproc
.LFE1:
	.size	decode, .-decode
	.comm	TREE,4,4
	.comm	DICT,4,4
.Letext0:
	.file 2 "src/huffman_utils.h"
	.section	.note.GNU-stack,"",%progbits
